; Function Attrs: nounwind uwtable
define ptr @Abc_NtkCovDeriveClean(ptr noundef readnone captures(none) %0, ptr noundef %1) local_unnamed_addr #0 {
  %3 = tail call ptr @Abc_NtkStartFrom(ptr noundef %1, i32 noundef 2, i32 noundef 1) #7
  %4 = getelementptr i8, ptr %1, i64 64
  %.val21 = load ptr, ptr %4, align 8, !tbaa !54
  %5 = getelementptr i8, ptr %.val21, i64 4
  %.val.val22 = load i32, ptr %5, align 4, !tbaa !55
  %6 = icmp sgt i32 %.val.val22, 0
  br i1 %6, label %.lr.ph, label %.critedge

.lr.ph:                                           ; preds = %2, %.lr.ph
  %indvars.iv = phi i64 [ %indvars.iv.next, %.lr.ph ], [ 0, %2 ]
  %.val24 = phi ptr [ %.val, %.lr.ph ], [ %.val21, %2 ]
  %7 = getelementptr i8, ptr %.val24, i64 8
  %.val17.val = load ptr, ptr %7, align 8, !tbaa !31
  %8 = getelementptr inbounds nuw ptr, ptr %.val17.val, i64 %indvars.iv
  %9 = load ptr, ptr %8, align 8, !tbaa !33
  %.val18 = load ptr, ptr %9, align 8, !tbaa !13
  %10 = getelementptr i8, ptr %9, i64 32
  %.val19 = load ptr, ptr %10, align 8, !tbaa !56
  %11 = getelementptr i8, ptr %.val18, i64 32
  %.val18.val = load ptr, ptr %11, align 8, !tbaa !17
  %.val19.val = load i32, ptr %.val19, align 4, !tbaa !12
  %12 = getelementptr i8, ptr %.val18.val, i64 8
  %.val18.val.val = load ptr, ptr %12, align 8, !tbaa !31
  %13 = sext i32 %.val19.val to i64
  %14 = getelementptr inbounds ptr, ptr %.val18.val.val, i64 %13
  %15 = load ptr, ptr %14, align 8, !tbaa !33
  %16 = getelementptr i8, ptr %9, i64 20
  %.val20 = load i32, ptr %16, align 4
  %17 = lshr i32 %.val20, 10
  %18 = and i32 %17, 1
  %19 = tail call ptr @Abc_NtkCovDeriveNodeInv_rec(ptr noundef %0, ptr noundef %3, ptr noundef %15, i32 noundef %18)
  %20 = getelementptr inbounds nuw i8, ptr %9, i64 64
  %21 = load ptr, ptr %20, align 8, !tbaa !34
  tail call void @Abc_ObjAddFanin(ptr noundef %21, ptr noundef %19) #7
  %indvars.iv.next = add nuw nsw i64 %indvars.iv, 1
  %.val = load ptr, ptr %4, align 8, !tbaa !54
  %22 = getelementptr i8, ptr %.val, i64 4
  %.val.val = load i32, ptr %22, align 4, !tbaa !55
  %23 = sext i32 %.val.val to i64
  %24 = icmp slt i64 %indvars.iv.next, %23
  br i1 %24, label %.lr.ph, label %.critedge, !llvm.loop !61

.critedge:                                        ; preds = %.lr.ph, %2
  %25 = tail call i32 @Abc_NtkLogicMakeSimpleCos(ptr noundef %3, i32 noundef 0) #7
  %26 = tail call i32 @Abc_NtkCheck(ptr noundef %3) #7
  %.not = icmp eq i32 %26, 0
  br i1 %.not, label %27, label %28

27:                                               ; preds = %.critedge
  %puts = tail call i32 @puts(ptr nonnull dereferenceable(1) @str.1)
  tail call void @Abc_NtkDelete(ptr noundef %3) #7
  br label %28

28:                                               ; preds = %.critedge, %27
  %.016 = phi ptr [ null, %27 ], [ %3, %.critedge ]
  ret ptr %.016
}